; Function Attrs: mustprogress uwtable
define hidden void @_ZN4cvc58internal6theory9datatypes15TheoryDatatypes7EqcInfoC2EPNS_7context7ContextE(ptr noundef nonnull align 8 dereferenceable(144) %0, ptr noundef %1) unnamed_addr #3 align 2 personality ptr @__gxx_personality_v0 {
  %3 = alloca %"class.cvc5::internal::NodeTemplate", align 8
  tail call void @_ZN4cvc57context10ContextObjC2EPNS0_7ContextE(ptr noundef nonnull align 8 dereferenceable(41) %0, ptr noundef %1)
  store ptr getelementptr inbounds nuw inrange(-16, 32) (i8, ptr @_ZTVN4cvc57context3CDOIbEE, i64 16), ptr %0, align 8, !tbaa !14
  %4 = getelementptr inbounds nuw i8, ptr %0, i64 40
  store i8 0, ptr %4, align 8, !tbaa !565
  %5 = getelementptr inbounds nuw i8, ptr %0, i64 8
  %6 = load ptr, ptr %5, align 8, !tbaa !360
  %7 = load ptr, ptr %6, align 8, !tbaa !361
  %8 = getelementptr inbounds nuw i8, ptr %7, i64 16
  %9 = load ptr, ptr %8, align 8, !tbaa !368
  %10 = getelementptr inbounds i8, ptr %9, i64 -8
  %11 = load ptr, ptr %10, align 8, !tbaa !370
  %12 = icmp eq ptr %6, %11
  br i1 %12, label %_ZN4cvc57context3CDOIbEC2EPNS0_7ContextERKb.exit, label %13

13:                                               ; preds = %2
  tail call void @_ZN4cvc57context10ContextObj6updateEv(ptr noundef nonnull align 8 dereferenceable(41) %0)
  br label %_ZN4cvc57context3CDOIbEC2EPNS0_7ContextERKb.exit

_ZN4cvc57context3CDOIbEC2EPNS0_7ContextERKb.exit: ; preds = %2, %13
  store i8 0, ptr %4, align 8, !tbaa !565
  %14 = getelementptr inbounds nuw i8, ptr %0, i64 48
  call void @llvm.lifetime.start.p0(i64 8, ptr nonnull %3) #26
  tail call void @llvm.experimental.noalias.scope.decl(metadata !639)
  %15 = load ptr, ptr @_ZN4cvc58internal12NodeTemplateILb1EE6s_nullE, align 8, !tbaa !53, !noalias !639
  store ptr %15, ptr %3, align 8, !tbaa !53, !alias.scope !639
  %16 = load i64, ptr %15, align 8, !noalias !639
  %17 = lshr i64 %16, 40
  %18 = trunc nuw nsw i64 %17 to i32
  %19 = and i32 %18, 1048575
  %20 = icmp samesign ult i32 %19, 1048574
  br i1 %20, label %21, label %26, !prof !80

21:                                               ; preds = %_ZN4cvc57context3CDOIbEC2EPNS0_7ContextERKb.exit
  %22 = add i64 %16, 1099511627776
  %23 = and i64 %22, 1152920405095219200
  %24 = and i64 %16, -1152920405095219201
  %25 = or disjoint i64 %23, %24
  store i64 %25, ptr %15, align 8, !noalias !639
  br label %_ZN4cvc58internal12NodeTemplateILb1EE4nullEv.exit

26:                                               ; preds = %_ZN4cvc57context3CDOIbEC2EPNS0_7ContextERKb.exit
  %27 = icmp eq i32 %19, 1048574
  br i1 %27, label %28, label %_ZN4cvc58internal12NodeTemplateILb1EE4nullEv.exit, !prof !79

28:                                               ; preds = %26
  %29 = or i64 %16, 1152920405095219200
  store i64 %29, ptr %15, align 8, !noalias !639
  invoke void @_ZN4cvc58internal4expr9NodeValue20markRefCountMaxedOutEv(ptr noundef nonnull align 8 dereferenceable(24) %15)
          to label %_ZN4cvc58internal12NodeTemplateILb1EE4nullEv.exit unwind label %56

_ZN4cvc58internal12NodeTemplateILb1EE4nullEv.exit: ; preds = %26, %21, %28
  invoke void @_ZN4cvc57context3CDOINS_8internal12NodeTemplateILb1EEEEC2EPNS0_7ContextERKS4_(ptr noundef nonnull align 8 dereferenceable(48) %14, ptr noundef %1, ptr noundef nonnull align 8 dereferenceable(8) %3)
          to label %30 unwind label %58

30:                                               ; preds = %_ZN4cvc58internal12NodeTemplateILb1EE4nullEv.exit
  %31 = load ptr, ptr %3, align 8, !tbaa !53
  %32 = load i64, ptr %31, align 8
  %33 = and i64 %32, 1152920405095219200
  %.not.i.i = icmp eq i64 %33, 1152920405095219200
  br i1 %.not.i.i, label %_ZN4cvc58internal12NodeTemplateILb1EED2Ev.exit, label %34, !prof !79

34:                                               ; preds = %30
  %35 = add i64 %32, 1152920405095219200
  %36 = and i64 %35, 1152920405095219200
  %37 = and i64 %32, -1152920405095219201
  %38 = or disjoint i64 %36, %37
  store i64 %38, ptr %31, align 8
  %39 = icmp eq i64 %36, 0
  br i1 %39, label %40, label %_ZN4cvc58internal12NodeTemplateILb1EED2Ev.exit, !prof !79

40:                                               ; preds = %34
  invoke void @_ZN4cvc58internal4expr9NodeValue15markForDeletionEv(ptr noundef nonnull align 8 dereferenceable(24) %31)
          to label %_ZN4cvc58internal12NodeTemplateILb1EED2Ev.exit unwind label %41

41:                                               ; preds = %40
  %42 = landingpad { ptr, i32 }
          catch ptr null
  %43 = extractvalue { ptr, i32 } %42, 0
  call void @__clang_call_terminate(ptr %43) #28
  unreachable

_ZN4cvc58internal12NodeTemplateILb1EED2Ev.exit:   ; preds = %30, %34, %40
  call void @llvm.lifetime.end.p0(i64 8, ptr nonnull %3) #26
  %44 = getelementptr inbounds nuw i8, ptr %0, i64 96
  invoke void @_ZN4cvc57context10ContextObjC2EPNS0_7ContextE(ptr noundef nonnull align 8 dereferenceable(41) %44, ptr noundef %1)
          to label %.noexc10 unwind label %61

.noexc10:                                         ; preds = %_ZN4cvc58internal12NodeTemplateILb1EED2Ev.exit
  store ptr getelementptr inbounds nuw inrange(-16, 32) (i8, ptr @_ZTVN4cvc57context3CDOIbEE, i64 16), ptr %44, align 8, !tbaa !14
  %45 = getelementptr inbounds nuw i8, ptr %0, i64 136
  store i8 0, ptr %45, align 8, !tbaa !565
  %46 = getelementptr inbounds nuw i8, ptr %0, i64 104
  %47 = load ptr, ptr %46, align 8, !tbaa !360
  %48 = load ptr, ptr %47, align 8, !tbaa !361
  %49 = getelementptr inbounds nuw i8, ptr %48, i64 16
  %50 = load ptr, ptr %49, align 8, !tbaa !368
  %51 = getelementptr inbounds i8, ptr %50, i64 -8
  %52 = load ptr, ptr %51, align 8, !tbaa !370
  %53 = icmp eq ptr %47, %52
  br i1 %53, label %55, label %54

54:                                               ; preds = %.noexc10
  invoke void @_ZN4cvc57context10ContextObj6updateEv(ptr noundef nonnull align 8 dereferenceable(41) %44)
          to label %55 unwind label %61

55:                                               ; preds = %.noexc10, %54
  store i8 0, ptr %45, align 8, !tbaa !565
  ret void

56:                                               ; preds = %28
  %57 = landingpad { ptr, i32 }
          cleanup
  br label %60

58:                                               ; preds = %_ZN4cvc58internal12NodeTemplateILb1EE4nullEv.exit
  %59 = landingpad { ptr, i32 }
          cleanup
  call void @_ZN4cvc58internal12NodeTemplateILb1EED2Ev(ptr noundef nonnull align 8 dereferenceable(8) %3) #26
  br label %60

60:                                               ; preds = %58, %56
  %.pn = phi { ptr, i32 } [ %59, %58 ], [ %57, %56 ]
  call void @llvm.lifetime.end.p0(i64 8, ptr nonnull %3) #26
  br label %63

61:                                               ; preds = %54, %_ZN4cvc58internal12NodeTemplateILb1EED2Ev.exit
  %62 = landingpad { ptr, i32 }
          cleanup
  call void @_ZN4cvc57context3CDOINS_8internal12NodeTemplateILb1EEEED2Ev(ptr noundef nonnull align 8 dereferenceable(48) %14) #26
  br label %63

63:                                               ; preds = %61, %60
  %.pn8 = phi { ptr, i32 } [ %62, %61 ], [ %.pn, %60 ]
  call void @_ZN4cvc57context3CDOIbED2Ev(ptr noundef nonnull align 8 dereferenceable(41) %0) #26
  resume { ptr, i32 } %.pn8
}